target datalayout = "e-m:e-p270:32:32-p271:32:32-p272:64:64-i64:64-i128:128-f80:128-n8:16:32:64-S128"
target triple = "x86_64-pc-linux-gnu"

%struct.Vec_Wrd_t_ = type { i32, i32, ptr }

; Function Attrs: inlinehint nounwind uwtable
define internal i32 @Vec_WrdSize(ptr noundef %0) #3 {
  %2 = alloca ptr, align 8
  store ptr %0, ptr %2, align 8, !tbaa !3
  %3 = load ptr, ptr %2, align 8, !tbaa !3
  %4 = getelementptr inbounds nuw %struct.Vec_Wrd_t_, ptr %3, i32 0, i32 1
  %5 = load i32, ptr %4, align 4, !tbaa !17
  ret i32 %5
}

; Function Attrs: nounwind uwtable
define void @Vec_WrdDoubleSimInfo(ptr noundef %0, i32 noundef %1) #0 {
  %3 = alloca ptr, align 8
  %4 = alloca i32, align 4
  %5 = alloca ptr, align 8
  %6 = alloca i32, align 4
  %7 = alloca i32, align 4
  store ptr %0, ptr %3, align 8, !tbaa !3
  store i32 %1, ptr %4, align 4, !tbaa !8
  call void @llvm.lifetime.start.p0(i64 8, ptr %5) #10
  %8 = load ptr, ptr %3, align 8, !tbaa !3
  %9 = call i32 @Vec_WrdSize(ptr noundef %8)
  %10 = mul nsw i32 2, %9
  %11 = sext i32 %10 to i64
  %12 = call noalias ptr @calloc(i64 noundef %11, i64 noundef 8) #11
  store ptr %12, ptr %5, align 8, !tbaa !10
  call void @llvm.lifetime.start.p0(i64 4, ptr %6) #10
  call void @llvm.lifetime.start.p0(i64 4, ptr %7) #10
  %13 = load ptr, ptr %3, align 8, !tbaa !3
  %14 = call i32 @Vec_WrdSize(ptr noundef %13)
  %15 = load i32, ptr %4, align 4, !tbaa !8
  %16 = sdiv i32 %14, %15
  store i32 %16, ptr %7, align 4, !tbaa !8
  store i32 0, ptr %6, align 4, !tbaa !8
  br label %17

17:                                               ; preds = %40, %2
  %18 = load i32, ptr %6, align 4, !tbaa !8
  %19 = load i32, ptr %4, align 4, !tbaa !8
  %20 = icmp slt i32 %18, %19
  br i1 %20, label %21, label %43

21:                                               ; preds = %17
  %22 = load ptr, ptr %5, align 8, !tbaa !10
  %23 = load i32, ptr %6, align 4, !tbaa !8
  %24 = mul nsw i32 2, %23
  %25 = load i32, ptr %7, align 4, !tbaa !8
  %26 = mul nsw i32 %24, %25
  %27 = sext i32 %26 to i64
  %28 = getelementptr inbounds i64, ptr %22, i64 %27
  %29 = load ptr, ptr %3, align 8, !tbaa !3
  %30 = getelementptr inbounds nuw %struct.Vec_Wrd_t_, ptr %29, i32 0, i32 2
  %31 = load ptr, ptr %30, align 8, !tbaa !12
  %32 = load i32, ptr %6, align 4, !tbaa !8
  %33 = load i32, ptr %7, align 4, !tbaa !8
  %34 = mul nsw i32 %32, %33
  %35 = sext i32 %34 to i64
  %36 = getelementptr inbounds i64, ptr %31, i64 %35
  %37 = load i32, ptr %7, align 4, !tbaa !8
  %38 = sext i32 %37 to i64
  %39 = mul i64 8, %38
  call void @llvm.memcpy.p0.p0.i64(ptr align 8 %28, ptr align 8 %36, i64 %39, i1 false)
  br label %40

40:                                               ; preds = %21
  %41 = load i32, ptr %6, align 4, !tbaa !8
  %42 = add nsw i32 %41, 1
  store i32 %42, ptr %6, align 4, !tbaa !8
  br label %17, !llvm.loop !14

43:                                               ; preds = %17
  %44 = load ptr, ptr %3, align 8, !tbaa !3
  %45 = getelementptr inbounds nuw %struct.Vec_Wrd_t_, ptr %44, i32 0, i32 2
  %46 = load ptr, ptr %45, align 8, !tbaa !12
  %47 = icmp ne ptr %46, null
  br i1 %47, label %48, label %54

48:                                               ; preds = %43
  %49 = load ptr, ptr %3, align 8, !tbaa !3
  %50 = getelementptr inbounds nuw %struct.Vec_Wrd_t_, ptr %49, i32 0, i32 2
  %51 = load ptr, ptr %50, align 8, !tbaa !12
  call void @free(ptr noundef %51) #10
  %52 = load ptr, ptr %3, align 8, !tbaa !3
  %53 = getelementptr inbounds nuw %struct.Vec_Wrd_t_, ptr %52, i32 0, i32 2
  store ptr null, ptr %53, align 8, !tbaa !12
  br label %55

54:                                               ; preds = %43
  br label %55

55:                                               ; preds = %54, %48
  %56 = load ptr, ptr %5, align 8, !tbaa !10
  %57 = load ptr, ptr %3, align 8, !tbaa !3
  %58 = getelementptr inbounds nuw %struct.Vec_Wrd_t_, ptr %57, i32 0, i32 2
  store ptr %56, ptr %58, align 8, !tbaa !12
  %59 = load i32, ptr %7, align 4, !tbaa !8
  %60 = mul nsw i32 2, %59
  %61 = load i32, ptr %4, align 4, !tbaa !8
  %62 = mul nsw i32 %60, %61
  %63 = load ptr, ptr %3, align 8, !tbaa !3
  %64 = getelementptr inbounds nuw %struct.Vec_Wrd_t_, ptr %63, i32 0, i32 0
  store i32 %62, ptr %64, align 8, !tbaa !16
  %65 = load ptr, ptr %3, align 8, !tbaa !3
  %66 = getelementptr inbounds nuw %struct.Vec_Wrd_t_, ptr %65, i32 0, i32 1
  store i32 %62, ptr %66, align 4, !tbaa !17
  call void @llvm.lifetime.end.p0(i64 4, ptr %7) #10
  call void @llvm.lifetime.end.p0(i64 4, ptr %6) #10
  call void @llvm.lifetime.end.p0(i64 8, ptr %5) #10
  ret void
}