; Function Attrs: nounwind uwtable
define void @Vec_WrdDoubleSimInfo(ptr noundef captures(none) %0, i32 noundef %1) local_unnamed_addr #0 {
  %3 = getelementptr i8, ptr %0, i64 4
  %.val = load i32, ptr %3, align 4, !tbaa !3
  %4 = shl nsw i32 %.val, 1
  %5 = sext i32 %4 to i64
  %6 = tail call noalias ptr @calloc(i64 noundef %5, i64 noundef 8) #13
  %7 = sdiv i32 %.val, %1
  %8 = icmp sgt i32 %1, 0
  br i1 %8, label %.lr.ph, label %.._crit_edge_crit_edge

.._crit_edge_crit_edge:                           ; preds = %2
  %.phi.trans.insert = getelementptr inbounds nuw i8, ptr %0, i64 8
  %.pre = load ptr, ptr %.phi.trans.insert, align 8, !tbaa !10
  br label %._crit_edge

.lr.ph:                                           ; preds = %2
  %9 = shl i32 %7, 1
  %10 = getelementptr inbounds nuw i8, ptr %0, i64 8
  %11 = load ptr, ptr %10, align 8, !tbaa !10
  %12 = sext i32 %7 to i64
  %13 = shl nsw i64 %12, 3
  %wide.trip.count = zext nneg i32 %1 to i64
  br label %14

14:                                               ; preds = %.lr.ph, %14
  %indvars.iv = phi i64 [ 0, %.lr.ph ], [ %indvars.iv.next, %14 ]
  %15 = trunc nuw nsw i64 %indvars.iv to i32
  %16 = mul i32 %9, %15
  %17 = sext i32 %16 to i64
  %18 = getelementptr inbounds i64, ptr %6, i64 %17
  %19 = mul nsw i64 %indvars.iv, %12
  %20 = getelementptr inbounds i64, ptr %11, i64 %19
  tail call void @llvm.memcpy.p0.p0.i64(ptr align 8 %18, ptr align 8 %20, i64 %13, i1 false)
  %indvars.iv.next = add nuw nsw i64 %indvars.iv, 1
  %exitcond.not = icmp eq i64 %indvars.iv.next, %wide.trip.count
  br i1 %exitcond.not, label %._crit_edge, label %14, !llvm.loop !11

._crit_edge:                                      ; preds = %14, %.._crit_edge_crit_edge
  %21 = phi ptr [ %.pre, %.._crit_edge_crit_edge ], [ %11, %14 ]
  %.not = icmp eq ptr %21, null
  br i1 %.not, label %23, label %22

22:                                               ; preds = %._crit_edge
  tail call void @free(ptr noundef nonnull %21) #14
  br label %23

23:                                               ; preds = %._crit_edge, %22
  %24 = getelementptr inbounds nuw i8, ptr %0, i64 8
  store ptr %6, ptr %24, align 8, !tbaa !10
  %25 = shl nsw i32 %7, 1
  %26 = mul nsw i32 %25, %1
  store i32 %26, ptr %0, align 8, !tbaa !13
  store i32 %26, ptr %3, align 4, !tbaa !3
  ret void
}